; Function Attrs: nounwind uwtable
define internal void @thread_provider_load_unload() #1 {
  %1 = load ptr, ptr @multi_libctx, align 8, !tbaa !16
  %2 = tail call ptr @OSSL_PROVIDER_load(ptr noundef %1, ptr noundef nonnull @.str.54) #11
  %3 = tail call i32 @test_ptr(ptr noundef nonnull @.str.18, i32 noundef 944, ptr noundef nonnull @.str.151, ptr noundef %2) #11
  %.not = icmp eq i32 %3, 0
  br i1 %.not, label %10, label %4

4:                                                ; preds = %0
  %5 = load ptr, ptr @multi_libctx, align 8, !tbaa !16
  %6 = tail call i32 @OSSL_PROVIDER_available(ptr noundef %5, ptr noundef nonnull @.str.54) #11
  %7 = icmp ne i32 %6, 0
  %8 = zext i1 %7 to i32
  %9 = tail call i32 @test_true(ptr noundef nonnull @.str.18, i32 noundef 945, ptr noundef nonnull @.str.152, i32 noundef %8) #11
  %.not2 = icmp eq i32 %9, 0
  br i1 %.not2, label %10, label %multi_set_success.exit

10:                                               ; preds = %4, %0
  %11 = load ptr, ptr @global_lock, align 8, !tbaa !11
  %12 = tail call i32 @CRYPTO_THREAD_write_lock(ptr noundef %11) #11
  %13 = icmp eq i32 %12, 0
  store i1 false, ptr @multi_success, align 4
  br i1 %13, label %multi_set_success.exit, label %14

14:                                               ; preds = %10
  %15 = load ptr, ptr @global_lock, align 8, !tbaa !11
  %16 = tail call i32 @CRYPTO_THREAD_unlock(ptr noundef %15) #11
  br label %multi_set_success.exit

multi_set_success.exit:                           ; preds = %14, %10, %4
  %17 = tail call i32 @OSSL_PROVIDER_unload(ptr noundef %2) #11
  ret void
}